target datalayout = "e-m:e-p270:32:32-p271:32:32-p272:64:64-i64:64-i128:128-f80:128-n8:16:32:64-S128"
target triple = "x86_64-pc-linux-gnu"

; Function Attrs: mustprogress uwtable
define noundef i32 @_ZNK6icu_778Collator7compareEPKDsiS2_i(ptr noundef nonnull align 8 dereferenceable(8) %0, ptr noundef %1, i32 noundef %2, ptr noundef %3, i32 noundef %4) unnamed_addr #3 align 2 {
  %6 = alloca ptr, align 8
  %7 = alloca ptr, align 8
  %8 = alloca i32, align 4
  %9 = alloca ptr, align 8
  %10 = alloca i32, align 4
  %11 = alloca i32, align 4
  store ptr %0, ptr %6, align 8, !tbaa !27
  store ptr %1, ptr %7, align 8, !tbaa !54
  store i32 %2, ptr %8, align 4, !tbaa !39
  store ptr %3, ptr %9, align 8, !tbaa !54
  store i32 %4, ptr %10, align 4, !tbaa !39
  %12 = load ptr, ptr %6, align 8
  call void @llvm.lifetime.start.p0(i64 4, ptr %11) #14
  store i32 0, ptr %11, align 4, !tbaa !25
  %13 = load ptr, ptr %7, align 8, !tbaa !54
  %14 = load i32, ptr %8, align 4, !tbaa !39
  %15 = load ptr, ptr %9, align 8, !tbaa !54
  %16 = load i32, ptr %10, align 4, !tbaa !39
  %17 = load ptr, ptr %12, align 8, !tbaa !19
  %18 = getelementptr inbounds ptr, ptr %17, i64 11
  %19 = load ptr, ptr %18, align 8
  %20 = call noundef i32 %19(ptr noundef nonnull align 8 dereferenceable(8) %12, ptr noundef %13, i32 noundef %14, ptr noundef %15, i32 noundef %16, ptr noundef nonnull align 4 dereferenceable(4) %11)
  call void @llvm.lifetime.end.p0(i64 4, ptr %11) #14
  ret i32 %20
}